((lp0
F-175.23
aF261.11
aF-29.2
aF-289.35
aF-157.03
aF-521.31
aF-1061.11
aF-921.82
aF-818.29
aF-531.75
aF81.35
aF131.12
aF-1164.7
aF-686.24
aF-498.98
aF-182.24
aF420.84
aF804.1
aF-462.81
aF-449.77
aF13.79
aF-425.68
aF-333.4
aF-1495.47
aF-1038.57
aF-207.15
aF-389.05
aF-434.0
aF-398.0
aF-425.0
aF-400.0
aF1796.0
aF2600.0
aF-400.0
aF-3400.0
aF-2596.0
a(lp1
F-1673.46
aF-796.92
aF-744.43
aF-586.93
aF-815.57
aF-754.67
aF-840.54
aF-997.62
aF-1142.27
aF-850.72
aF-790.24
aF-1208.83
aF-316.77
aF-590.28
aF-506.33
aF-365.11
aF-811.08
aF-1273.32
aF-236.35
aF-15.03
aF-110.97
aF181.9
aF503.6
aF-1416.06
aF-1128.36
aF-956.31
aF-482.4
aF-510.0
aF-462.0
aF-475.0
aF-3664.0
aF-1468.0
aF1532.0
aF2336.0
aF1532.0
aF-1468.0
a(lp2
F0.0
aF0.0
aF0.0
aF0.0
aF0.0
aF0.0
aF0.0
aF0.0
aF0.0
aF0.0
aF0.0
aF0.0
aF0.0
aF0.0
aF0.0
aF0.0
aF0.0
aF0.0
aF0.0
aF0.0
aF0.0
aF0.0
aF0.0
aF0.0
aF0.0
aF0.0
aF0.0
aF0.0
aF0.0
aF0.0
aF0.0
aF0.0
aF0.0
aF0.0
aF0.0
aF0.0
aF12.0
tp3
.