((lp0
F-8.0
aF1.0
aF-32.0
aF-66.0
aF-124.0
aF-102.0
aF-18.0
aF-90.0
aF-93.0
aF32.0
aF88.0
aF84.0
aF140.0
aF237.0
aF281.0
aF211.0
aF288.0
aF200.0
aF106.0
aF171.0
aF97.0
aF-296.0
aF-322.0
aF-373.0
aF-351.0
aF-182.0
aF-99.0
aF41.0
aF-51.0
aF-89.0
aF171.0
aF247.0
aF461.0
aF581.0
aF358.0
aF386.0
aF388.0
aF380.0
aF213.0
aF254.0
aF-27.0
aF-287.0
aF-362.0
aF-630.0
aF-896.0
aF-1832.0
aF-1467.0
aF-578.0
aF-2805.0
aF-3605.0
aF-2052.0
aF-850.0
aF-593.0
aF9.0
aF872.0
aF1201.0
aF1598.0
aF295.0
aF2805.0
aF3685.0
aF3419.0
aF-16.0
aF-1440.0
aF-3419.0
a(lp1
F27.0
aF63.0
aF10.0
aF32.0
aF-19.0
aF-49.0
aF-61.0
aF-169.0
aF-302.0
aF-137.0
aF-279.0
aF-118.0
aF-135.0
aF-160.0
aF-52.0
aF16.0
aF49.0
aF123.0
aF-11.0
aF-51.0
aF-66.0
aF-93.0
aF93.0
aF236.0
aF386.0
aF462.0
aF253.0
aF212.0
aF148.0
aF111.0
aF350.0
aF330.0
aF412.0
aF1104.0
aF207.0
aF54.0
aF-57.0
aF-226.0
aF-336.0
aF-360.0
aF-480.0
aF-429.0
aF-227.0
aF106.0
aF839.0
aF503.0
aF1996.0
aF-284.0
aF2935.0
aF674.0
aF-612.0
aF-537.0
aF-918.0
aF-1075.0
aF-267.0
aF333.0
aF705.0
aF3511.0
aF2935.0
aF998.0
aF-1614.0
aF-2099.0
aF-2280.0
aF-1614.0
a(lp2
F0.0
aF0.0
aF0.0
aF0.0
aF0.0
aF0.0
aF0.0
aF0.0
aF0.0
aF0.0
aF0.0
aF0.0
aF0.0
aF0.0
aF0.0
aF0.0
aF0.0
aF0.0
aF0.0
aF0.0
aF0.0
aF0.0
aF0.0
aF0.0
aF0.0
aF0.0
aF0.0
aF0.0
aF0.0
aF0.0
aF0.0
aF0.0
aF0.0
aF0.0
aF0.0
aF0.0
aF0.0
aF0.0
aF0.0
aF0.0
aF0.0
aF0.0
aF0.0
aF0.0
aF0.0
aF0.0
aF0.0
aF0.0
aF0.0
aF0.0
aF0.0
aF0.0
aF0.0
aF0.0
aF0.0
aF0.0
aF0.0
aF0.0
aF0.0
aF0.0
aF0.0
aF0.0
aF0.0
aF0.0
aF13.5
tp3
.