(lp0
I31
aI136
aI28
aI29
aI142
aI143
aI138
aI125
aI137
aI134
aI128
aI25
aI119
aI132
aI38
aI120
aI139
aI116
aI145
aI34
aI33
aI149
aI127
aI122
aI129
aI114
aI112
aI135
aI22
aI144
aI141
aI151
aI115
aI148
aI150
aI121
aI113
aI20
aI32
aI131
aI39
aI130
aI111
aI43
aI109
aI147
aI65
aI41
aI45
aI154
aI118
aI107
aI35
aI124
aI18
aI42
aI157
aI156
aI30
aI152
aI16
aI66
aI21
aI105
aI40
aI153
aI24
aI110
aI49
aI51
aI44
aI104
aI36
aI27
aI160
aI140
aI117
aI162
aI47
aI17
aI13
aI52
aI26
aI155
aI37
aI102
aI15
aI158
aI19
aI106
aI53
aI10
aI46
aI12
aI55
aI54
aI101
aI146
aI64
aI23
aI164
aI50
aI99
aI161
aI11
aI163
aI166
aI98
aI126
aI108
aI167
aI96
aI165
aI103
aI56
aI48
aI58
aI59
aI6
aI159
aI169
aI93
aI4
aI14
aI133
aI171
aI92
aI7
aI9
aI100
aI172
aI91
aI57
aI62
aI95
aI174
aI94
aI3
aI63
aI97
aI177
aI89
aI0
aI8
aI87
aI123
aI179
aI61
aI60
aI5
aI180
aI1
aI2
aI86
aI170
aI178
aI83
aI176
aI181
aI81
aI173
aI80
aI182
aI168
aI90
aI78
aI184
aI85
aI79
aI186
aI77
aI82
aI188
aI76
aI189
aI88
aI75
aI175
aI191
aI73
aI185
aI190
aI72
aI187
aI192
aI70
aI183
aI193
aI84
aI69
aI194
aI68
aI74
aI195
aI67
aI71
a.