((lp0
F5109867.003593369
aF5110727.576316808
aF5108676.466495953
aF5109794.624827637
aF5108624.252726746
aF5107438.307035419
aF5109038.803138216
aF5108063.350015669
aF5109950.61123024
aF5109222.422748647
aF5108599.709091251
aF5108340.747027654
aF5108625.574537723
aF5108417.528265197
aF5108032.451347021
aF5108380.359296281
aF5108470.243502299
aF5108562.5435414165
aF5108400.121151174
aF5108281.72195469
aF5108403.218516275
aF5108299.584901993
aF5108399.419973875
aF5108595.1806361
aF5108476.127993622
aF5108343.853661254
aF5108198.756135841
aF5108232.214731173
aF5108354.086614798
aF5108330.4131473545
aF5108244.790117768
aF5108331.05498194
aF5108270.4123364175
aF5108350.909464539
aF5108328.701639422
aF5108227.9579394255
aF5108187.53059171
aF5108145.812621516
aF5108292.171952984
aF5108248.012721286
aF5108378.543156977
aF5108227.859594446
aF5108199.744242367
aF5108237.725820928
aF5108152.3483895445
aF5108267.26474989
aF5108068.617888965
aF5108339.375299597
aF5107869.5477833515
aF5108150.398900004
aF5108391.430578168
aF5108205.840121015
aF5108077.429476999
aF5108051.6728636855
aF5108216.486056894
aF5108097.21585771
aF5108370.949648244
aF5108774.8401689
aF5108096.7434379095
aF5107802.427921359
aF5106300.294169187
aF5108800.183831025
aF5107327.147215031
aF5107762.011444254
aF5108114.730718142
aF5108423.822895976
aF5108484.82053757
aF5104063.70344249
aF5150965.185035295
aF5143182.130124521
aF5135060.870087362
aF5157168.214693186
aF5127426.5022328645
aF5121380.347805716
aF5094316.949385575
aF5115439.248239345
aF5111232.906561041
aF5108727.10638542
aF5114679.253795069
aF5115909.862240813
aF5113325.994568281
aF5112011.294738542
aF5116784.302971075
aF5110835.824550416
aF5089414.468390927
aF5106361.886609036
aF5109853.976000803
aF5109083.322554628
aF5117041.397736457
aF5108538.608371803
aF5105285.521816199
aF5109481.628544824
aF5109270.939415744
aF5109053.841746737
aF5109654.208418736
aF5108135.46446124
aF5108725.64717132
aF5109745.497096249
aF5108766.641915717
aF5108546.99735919
aF5107905.209356403
aF5108654.342995119
aF5108527.9645539215
aF5108841.936794852
aF5108523.993675399
aF5108376.883528058
aF5108582.23142241
aF5108418.479350618
aF5108096.545335642
aF5108368.909237288
aF5108497.65814993
aF5108428.524942349
aF5108381.530342543
aF5108346.772469206
aF5108364.269440911
aF5108409.327092205
aF5108379.262779332
aF5108234.086753422
aF5108432.703513883
aF5108361.35221553
aF5108384.64957327
aF5108407.936825273
aF5108335.617223826
aF5109699.616616531
aF5108284.61842175
aF5108366.028946903
aF5108644.7045009285
aF5108383.453789186
aF5108371.364518947
aF5108309.582651713
aF5108283.550106796
aF5108395.271589591
aF5108366.569882886
aF5107794.233444792
aF5108316.327330477
aF5108373.014404341
aF5108337.631862957
aF5108342.729005662
aF5108304.522558601
aF5108290.280870401
aF5108436.942511116
aF5108358.627226937
aF5108310.859679721
aF5108320.35891859
aF5108266.334412406
aF5108282.765161329
aF5108500.361658759
aF5108352.445461688
aF5108330.128989916
aF5108295.225408996
aF5108309.61936793
aF5108269.566208516
aF5108195.554800792
aF5108334.109957235
aF5108241.548925984
aF5108098.5301463865
aF5108284.494639178
aF5108198.851892595
aF5108321.967447227
aF5107770.832105155
aF5108162.157090046
aF5108374.886351448
aF5108106.833967258
aF5107920.5929883355
aF5108013.965970813
aF5108284.644150297
aF5108121.808603236
aF5107823.93908115
aF5104620.075387225
aF5108248.207006752
aF5109449.263476681
aF5108002.160507119
aF5107671.389274662
aF5104872.673390766
aF5107254.598323398
aF5116174.966763216
aF5108918.0286409315
aF5106762.779616437
aF5105419.697907039
aF5106219.753217726
aF5106058.594635144
aF5107892.4336546855
aF5106703.293079992
aF5087488.584329097
aF5104890.68633154
aF5113852.138426087
aF5102307.735435453
aF5088188.993388617
aF5099674.585750202
aF5096644.892199356
aF5090395.628498338
aF5093394.469832474
aF5109539.8238762915
aF5103656.186240817
aF5092772.514797102
aF5080225.221653396
aF5064215.840793349
a(lp1
F2007368.1905413633
aF2004375.9686726455
aF2009598.00551949
aF2005447.0382270813
aF2007187.3904948172
aF2010057.5942477055
aF2005763.7779699615
aF2008060.2038258607
aF2003211.0589240596
aF2004829.6847805842
aF2006358.4601299833
aF2006947.7212881893
aF2006186.965048888
aF2006666.3322674667
aF2007622.054127742
aF2006732.6134525938
aF2006396.7669375814
aF2006138.6662979128
aF2006519.0773246973
aF2006813.3607338883
aF2006421.8264173213
aF2006650.5060068187
aF2006379.9207902376
aF2005875.540225498
aF2006159.2009658
aF2006454.6378928246
aF2006811.3123238625
aF2006719.1748784229
aF2006385.9910418969
aF2006439.2939425402
aF2006640.8576237531
aF2006413.9621921626
aF2006538.1504629587
aF2006323.4493761838
aF2006337.8614047891
aF2006591.402971476
aF2006693.5424565815
aF2006792.766705691
aF2006413.51944501
aF2006520.058915165
aF2006149.1471804285
aF2006498.105671212
aF2006547.2238085652
aF2006446.501792085
aF2006632.567153594
aF2006327.1509370734
aF2006753.8672827485
aF2006063.1399856005
aF2007203.845835274
aF2006472.1147245292
aF2005850.9420231679
aF2006298.7447724587
aF2006577.9546733298
aF2006611.3059481403
aF2006094.5705023566
aF2006327.7661093
aF2005550.7398571311
aF2004418.1032105628
aF2005719.1374005056
aF2006250.8674439203
aF2009324.1110635023
aF2002959.500145106
aF2006036.446314256
aF2004677.412955808
aF2006931.8091171344
aF2006415.367276376
aF2006349.5844820372
aF2085194.9559061779
aF1965831.9485010747
aF1985806.9099925896
aF2000600.8467075187
aF1940576.1959421926
aF2010739.1487425196
aF2015425.87143258
aF2074537.7462497898
aF2019910.8351957635
aF2020925.9724701918
aF2019348.1485064677
aF2001765.9594557094
aF1998117.3582687918
aF2004542.385049848
aF2006509.9134659485
aF1993626.250887334
aF2007779.0148029535
aF2061340.7975627757
aF2018529.4044771753
aF2008482.7771521392
aF2008757.0160927286
aF1988390.7484066058
aF2008848.9790199792
aF2016376.9585796609
aF2005330.4945254836
aF2005850.3533800528
aF2006234.1443706364
aF2004669.8666243982
aF2008501.8452366546
aF2006663.150093952
aF2003883.8441074116
aF2006321.0630022998
aF2006678.5026495962
aF2008168.6087518781
aF2006235.9186750872
aF2006504.8877915083
aF2005696.0399421274
aF2006292.590814421
aF2006593.1044446034
aF2006053.211908696
aF2006469.8604788051
aF2007219.7892955195
aF2006511.6545838641
aF2006169.4364674238
aF2006328.8946559643
aF2006435.8457966528
aF2006511.0175930033
aF2006464.3034032306
aF2006349.1202744807
aF2006409.0932854442
aF2006764.8942546984
aF2006258.77567232
aF2006437.501495803
aF2006374.7781886999
aF2006310.0647581
aF2006485.0551201263
aF2003008.4917372628
aF2006613.6497989576
aF2006399.4187899998
aF2005681.8537415932
aF2006336.7767079307
aF2006366.4729914246
aF2006503.9429661776
aF2006556.1236330296
aF2006270.2861163262
aF2006338.5636067374
aF2007795.186990124
aF2006464.933327115
aF2006305.2714429914
aF2006382.3479467162
aF2006352.951762633
aF2006442.7913300656
aF2006473.473772088
aF2006093.6956586316
aF2006291.8717557753
aF2006410.2390908329
aF2006378.9289032926
aF2006497.4215110021
aF2006445.987611675
aF2005883.856213374
aF2006249.83388073
aF2006303.092925065
aF2006384.3703740353
aF2006322.1647591186
aF2006403.0762164681
aF2006591.3429658453
aF2006157.4141681746
aF2006378.5287834604
aF2006726.9749005088
aF2006252.300890567
aF2006433.7950949625
aF2006034.0349287326
aF2007427.1693414624
aF2006387.1919562195
aF2005822.7330099288
aF2006473.8245379755
aF2006816.8807010443
aF2006403.3968198271
aF2005654.9576509835
aF2005988.2997263663
aF2006596.7087400258
aF2014163.6319697555
aF2005396.1245426529
aF2002114.062438866
aF2005404.8828439356
aF2005546.8829127997
aF2011946.4184775446
aF2005874.1537840413
aF1982836.9327383384
aF2001310.2296360189
aF2006442.7109289155
aF2010136.7948010603
aF2007304.6404784573
aF2008535.3251385826
aF2001214.255074373
aF2000644.4951681334
aF2048330.897600743
aF2001245.4266837619
aF1977412.4960494486
aF2002193.792737017
aF2036036.781672602
aF2004783.308925494
aF2010370.3970879668
aF2025440.4891019538
aF2016874.1311511523
aF1972957.9480559528
aF1967131.5404416705
aF1971829.1500285084
aF1978043.5583927282
aF1991561.053779527
a(lp2
F-3235736.366600178
aF-3236228.8242969043
aF-3236228.8242969043
aF-3237033.0048238076
aF-3237796.4117241963
aF-3237886.208982199
aF-3238023.0003848425
aF-3238137.8654846116
aF-3238163.5073761204
aF-3238309.8268588926
aF-3238345.1910280976
aF-3238388.276034291
aF-3238410.199744269
aF-3238441.178811862
aF-3238456.1440476766
aF-3238458.622364667
aF-3238524.4881634917
aF-3238538.690713306
aF-3238559.0889685093
aF-3238563.4736343664
aF-3238614.0877802065
aF-3238635.7250054884
aF-3238645.8287146473
aF-3238649.4507963993
aF-3238661.4608468823
aF-3238686.910664679
aF-3238694.726699658
aF-3238699.0159843634
aF-3238713.1229512678
aF-3238717.412227517
aF-3238727.5158482236
aF-3238731.995752016
aF-3238750.5825639283
aF-3238756.5875260173
aF-3238782.5136671793
aF-3238784.3246817007
aF-3238784.801264412
aF-3238789.0905077104
aF-3238793.1891161306
aF-3238796.8111406784
aF-3238820.5448983153
aF-3238841.8956969767
aF-3238855.7165004155
aF-3238858.194711281
aF-3238877.4484809698
aF-3238885.3596718484
aF-3238933.97045651
aF-3238934.8282916113
aF-3238968.8556870455
aF-3238979.2449791273
aF-3238983.820076558
aF-3238999.0703851236
aF-3239028.42715893
aF-3239048.252460411
aF-3239108.014051783
aF-3239151.3814740716
aF-3239200.5627463716
aF-3239264.231140122
aF-3239526.5250893743
aF-3239660.4332185364
aF-3240120.6622269773
aF-3240120.6622269773
aF-3240536.5547581087
aF-3240691.127866631
aF-3238752.2029509027
aF-3238585.778207045
aF-3238530.683909357
aF-3195696.1595453084
aF-3196095.0571926283
aF-3196279.371764739
aF-3200083.881925655
aF-3201485.7197162495
aF-3205926.7302465104
aF-3212596.5384021904
aF-3217957.7751396
aF-3219194.404401493
aF-3225192.894695336
aF-3230114.6958754812
aF-3231628.7455177573
aF-3231936.753259265
aF-3232046.4469734384
aF-3232899.438670321
aF-3233316.4158272925
aF-3233962.73184648
aF-3234047.7977094785
aF-3234335.4137762752
aF-3235069.671971289
aF-3236109.454552968
aF-3236113.5543378335
aF-3236906.8765225317
aF-3237355.6109591234
aF-3237595.461015468
aF-3237605.8518365296
aF-3237709.9500661194
aF-3237731.3034056416
aF-3237752.7520234035
aF-3237960.2767710206
aF-3238071.5203380156
aF-3238106.5994397984
aF-3238230.805090883
aF-3238318.8823866816
aF-3238334.991672294
aF-3238367.4961225083
aF-3238373.2153688986
aF-3238504.37579087
aF-3238549.9383548675
aF-3238560.4234322496
aF-3238560.6140699093
aF-3238603.41212634
aF-3238612.5626875446
aF-3238621.4272851544
aF-3238631.6263279
aF-3238639.4424091876
aF-3238647.6397556984
aF-3238648.974206775
aF-3238649.2601605523
aF-3238659.4591728756
aF-3238667.942455007
aF-3238668.228408203
aF-3238670.039444906
aF-3238672.136434335
aF-3238675.4725529086
aF-3238681.096292948
aF-3238681.382245741
aF-3238681.8588337093
aF-3238686.14812433
aF-3238691.009317985
aF-3238697.3955881516
aF-3238698.062810155
aF-3238710.263432673
aF-3238718.937303042
aF-3238719.7951579145
aF-3238722.749990763
aF-3238722.749990763
aF-3238723.7031624494
aF-3238733.1395568955
aF-3238741.146187122
aF-3238751.2497821283
aF-3238755.8249913626
aF-3238759.2563968147
aF-3238763.164384822
aF-3238763.9269188764
aF-3238765.928570472
aF-3238770.313139135
aF-3238782.0370843518
aF-3238787.9467096897
aF-3238792.9031667644
aF-3238799.4799999716
aF-3238801.6722766776
aF-3238806.342777507
aF-3238822.069956984
aF-3238835.032945592
aF-3238835.1282616183
aF-3238885.0737253064
aF-3238894.03337944
aF-3238903.660232271
aF-3238904.422754843
aF-3238926.9171426794
aF-3238980.007495521
aF-3238986.012309949
aF-3239013.081584146
aF-3239027.0927621243
aF-3239046.44149712
aF-3239127.0766798193
aF-3239235.25635613
aF-3239271.6654451904
aF-3239321.703882842
aF-3239413.964526988
aF-3239765.7475138917
aF-3239487.9248802126
aF-3239622.9772593663
aF-3239867.915539875
aF-3240298.5910229054
aF-3240738.776273476
aF-3240749.9259655094
aF-3240855.9903176716
aF-3240948.3310753657
aF-3241170.173862115
aF-3240998.2652216
aF-3241489.873571225
aF-3240984.7334755757
aF-3242612.59489578
aF-3244821.625194281
aF-3245249.7856218815
aF-3247285.8257780005
aF-3247782.625000737
aF-3250735.8269828577
aF-3251837.443349534
aF-3253253.9411196024
aF-3254545.0942457863
aF-3254978.7054296685
aF-3255602.4913535584
aF-3257202.201423307
aF-3269841.3274256806
aF-3283857.40499187
aF-3299413.987314553
aF-3315743.960571487
a(lp3
F13.5
aF13.5
aF13.5
aF13.5
aF13.5
aF13.5
aF13.5
aF13.5
aF13.5
aF13.5
aF13.5
aF13.5
aF13.5
aF13.5
aF13.5
aF13.5
aF13.5
aF13.5
aF13.5
aF13.5
aF13.5
aF13.5
aF13.5
aF13.5
aF13.5
aF13.5
aF13.5
aF13.5
aF13.5
aF13.5
aF13.5
aF13.5
aF13.5
aF13.5
aF13.5
aF13.5
aF13.5
aF13.5
aF13.5
aF13.5
aF13.5
aF13.5
aF13.5
aF13.5
aF13.5
aF13.5
aF13.5
aF13.5
aF13.5
aF13.5
aF13.5
aF13.5
aF13.5
aF13.5
aF13.5
aF13.5
aF13.5
aF13.5
aF13.5
aF13.5
aF13.5
aF13.5
aF13.5
aF13.5
aF15.0
aF15.0
aF15.0
aF15.0
aF15.0
aF15.0
aF15.0
aF15.0
aF15.0
aF15.0
aF15.0
aF15.0
aF15.0
aF15.0
aF15.0
aF15.0
aF15.0
aF15.0
aF15.0
aF15.0
aF15.0
aF15.0
aF15.0
aF15.0
aF15.0
aF15.0
aF15.0
aF15.0
aF15.0
aF15.0
aF15.0
aF15.0
aF15.0
aF15.0
aF15.0
aF15.0
aF15.0
aF15.0
aF15.0
aF15.0
aF15.0
aF15.0
aF15.0
aF15.0
aF15.0
aF15.0
aF15.0
aF15.0
aF15.0
aF15.0
aF15.0
aF15.0
aF15.0
aF15.0
aF15.0
aF15.0
aF15.0
aF15.0
aF15.0
aF15.0
aF15.0
aF15.0
aF15.0
aF15.0
aF15.0
aF15.0
aF15.0
aF15.0
aF15.0
aF15.0
aF15.0
aF15.0
aF15.0
aF15.0
aF15.0
aF15.0
aF15.0
aF15.0
aF15.0
aF15.0
aF15.0
aF15.0
aF15.0
aF15.0
aF15.0
aF15.0
aF15.0
aF15.0
aF15.0
aF15.0
aF15.0
aF15.0
aF15.0
aF15.0
aF15.0
aF15.0
aF15.0
aF15.0
aF15.0
aF15.0
aF15.0
aF15.0
aF15.0
aF15.0
aF15.0
aF15.0
aF15.0
aF15.0
aF15.0
aF15.0
aF15.0
aF15.0
aF15.0
aF15.0
aF15.0
aF15.0
aF15.0
aF15.0
aF15.0
aF15.0
aF15.0
aF15.0
aF15.0
aF15.0
aF15.0
aF15.0
aF15.0
aF15.0
aF15.0
aF15.0
aF15.0
aF15.0
aF15.0
atp4
.